target datalayout = "e-m:e-p270:32:32-p271:32:32-p272:64:64-i64:64-i128:128-f80:128-n8:16:32:64-S128"
target triple = "x86_64-unknown-linux-gnu"

%struct.QTailQLink = type { ptr, ptr }
%struct.CompareState = type { %struct.Object, ptr, ptr, ptr, ptr, %struct.CharBackend, %struct.CharBackend, %struct.CharBackend, %struct.CharBackend, %struct.SocketReadState, %struct.SocketReadState, %struct.SocketReadState, %struct.SendCo, %struct.SendCo, i8, i64, i32, %struct._GQueue, ptr, ptr, ptr, ptr, ptr, i32, %union.anon.0 }
%struct.Object = type { ptr, ptr, ptr, i32, ptr }
%struct.CharBackend = type { ptr, ptr, ptr, ptr, ptr, ptr, i32, i32 }
%struct.SocketReadState = type { i32, i8, i32, i32, i32, [69632 x i8], ptr }
%struct.SendCo = type { ptr, ptr, ptr, %struct._GQueue, i8, i8, i32 }
%struct._GQueue = type { ptr, ptr, i32 }
%union.anon.0 = type { %struct.QTailQLink }
%struct.Connection = type { %struct._GQueue, %struct._GQueue, i8, i8, i32, i32, i32, i32, i32, i32 }
%struct.ConnectionKey = type <{ %struct.in_addr, %struct.in_addr, i16, i16, i8 }>
%struct.in_addr = type { i32 }
%struct.timeval = type { i64, i64 }

@colo_mode = internal global [2 x ptr] [ptr @.str.27, ptr @.str.28], align 16
@.str.24 = private unnamed_addr constant [32 x i8] c"queue size too big, drop packet\00", align 1
@trace_events_enabled_count = external global i32, align 4
@_TRACE_COLO_COMPARE_DROP_PACKET_DSTATE = external global i16, align 2
@message_with_timestamp = external global i8, align 1
@.str.25 = private unnamed_addr constant [48 x i8] c"%d@%zu.%06zu:colo_compare_drop_packet : %s: %s\0A\00", align 1
@.str.26 = private unnamed_addr constant [35 x i8] c"colo_compare_drop_packet : %s: %s\0A\00", align 1
@qemu_loglevel = external global i32, align 4

; Function Attrs: nounwind sspstrong uwtable
define internal zeroext i1 @qemu_loglevel_mask(i32 noundef %mask) #0 {
entry:
  %mask.addr = alloca i32, align 4
  store i32 %mask, ptr %mask.addr, align 4
  %0 = load i32, ptr @qemu_loglevel, align 4
  %1 = load i32, ptr %mask.addr, align 4
  %and = and i32 %0, %1
  %cmp = icmp ne i32 %and, 0
  ret i1 %cmp
}

; Function Attrs: nounwind sspstrong uwtable
define internal void @_nocheck__trace_colo_compare_drop_packet(ptr noundef %queue, ptr noundef %chr) #0 {
entry:
  %queue.addr = alloca ptr, align 8
  %chr.addr = alloca ptr, align 8
  %_now = alloca %struct.timeval, align 8
  store ptr %queue, ptr %queue.addr, align 8
  store ptr %chr, ptr %chr.addr, align 8
  %0 = load i32, ptr @trace_events_enabled_count, align 4
  %tobool = icmp ne i32 %0, 0
  %lnot = xor i1 %tobool, true
  %lnot1 = xor i1 %lnot, true
  %lnot.ext = zext i1 %lnot1 to i32
  %conv = sext i32 %lnot.ext to i64
  %tobool2 = icmp ne i64 %conv, 0
  br i1 %tobool2, label %land.lhs.true, label %if.end11

land.lhs.true:                                    ; preds = %entry
  %1 = load i16, ptr @_TRACE_COLO_COMPARE_DROP_PACKET_DSTATE, align 2
  %conv3 = zext i16 %1 to i32
  %tobool4 = icmp ne i32 %conv3, 0
  br i1 %tobool4, label %land.lhs.true5, label %if.end11

land.lhs.true5:                                   ; preds = %land.lhs.true
  %call = call zeroext i1 @qemu_loglevel_mask(i32 noundef 32768)
  br i1 %call, label %if.then, label %if.end11

if.then:                                          ; preds = %land.lhs.true5
  %2 = load i8, ptr @message_with_timestamp, align 1
  %tobool7 = trunc i8 %2 to i1
  br i1 %tobool7, label %if.then8, label %if.else

if.then8:                                         ; preds = %if.then
  %call9 = call i32 @gettimeofday(ptr noundef %_now, ptr noundef null) #15
  %call10 = call i32 @qemu_get_thread_id()
  %tv_sec = getelementptr inbounds %struct.timeval, ptr %_now, i32 0, i32 0
  %3 = load i64, ptr %tv_sec, align 8
  %tv_usec = getelementptr inbounds %struct.timeval, ptr %_now, i32 0, i32 1
  %4 = load i64, ptr %tv_usec, align 8
  %5 = load ptr, ptr %queue.addr, align 8
  %6 = load ptr, ptr %chr.addr, align 8
  call void (ptr, ...) @qemu_log(ptr noundef @.str.25, i32 noundef %call10, i64 noundef %3, i64 noundef %4, ptr noundef %5, ptr noundef %6)
  br label %if.end

if.else:                                          ; preds = %if.then
  %7 = load ptr, ptr %queue.addr, align 8
  %8 = load ptr, ptr %chr.addr, align 8
  call void (ptr, ...) @qemu_log(ptr noundef @.str.26, ptr noundef %7, ptr noundef %8)
  br label %if.end

if.end:                                           ; preds = %if.else, %if.then8
  br label %if.end11

if.end11:                                         ; preds = %if.end, %land.lhs.true5, %land.lhs.true, %entry
  ret void
}

; Function Attrs: nounwind sspstrong uwtable
define internal void @trace_colo_compare_drop_packet(ptr noundef %queue, ptr noundef %chr) #0 {
entry:
  %queue.addr = alloca ptr, align 8
  %chr.addr = alloca ptr, align 8
  store ptr %queue, ptr %queue.addr, align 8
  store ptr %chr, ptr %chr.addr, align 8
  %0 = load ptr, ptr %queue.addr, align 8
  %1 = load ptr, ptr %chr.addr, align 8
  call void @_nocheck__trace_colo_compare_drop_packet(ptr noundef %0, ptr noundef %1)
  ret void
}

; Function Attrs: nounwind sspstrong uwtable
define internal i32 @packet_enqueue(ptr noundef %s, i32 noundef %mode, ptr noundef %con) #0 {
entry:
  %retval = alloca i32, align 4
  %s.addr = alloca ptr, align 8
  %mode.addr = alloca i32, align 4
  %con.addr = alloca ptr, align 8
  %key = alloca %struct.ConnectionKey, align 1
  %pkt = alloca ptr, align 8
  %conn = alloca ptr, align 8
  %ret = alloca i32, align 4
  store ptr %s, ptr %s.addr, align 8
  store i32 %mode, ptr %mode.addr, align 4
  store ptr %con, ptr %con.addr, align 8
  store ptr null, ptr %pkt, align 8
  %0 = load i32, ptr %mode.addr, align 4
  %cmp = icmp eq i32 %0, 0
  br i1 %cmp, label %if.then, label %if.else

if.then:                                          ; preds = %entry
  %1 = load ptr, ptr %s.addr, align 8
  %pri_rs = getelementptr inbounds %struct.CompareState, ptr %1, i32 0, i32 9
  %buf = getelementptr inbounds %struct.SocketReadState, ptr %pri_rs, i32 0, i32 5
  %arraydecay = getelementptr inbounds [69632 x i8], ptr %buf, i64 0, i64 0
  %2 = load ptr, ptr %s.addr, align 8
  %pri_rs1 = getelementptr inbounds %struct.CompareState, ptr %2, i32 0, i32 9
  %packet_len = getelementptr inbounds %struct.SocketReadState, ptr %pri_rs1, i32 0, i32 3
  %3 = load i32, ptr %packet_len, align 4
  %4 = load ptr, ptr %s.addr, align 8
  %pri_rs2 = getelementptr inbounds %struct.CompareState, ptr %4, i32 0, i32 9
  %vnet_hdr_len = getelementptr inbounds %struct.SocketReadState, ptr %pri_rs2, i32 0, i32 4
  %5 = load i32, ptr %vnet_hdr_len, align 8
  %call = call ptr @packet_new(ptr noundef %arraydecay, i32 noundef %3, i32 noundef %5)
  store ptr %call, ptr %pkt, align 8
  br label %if.end

if.else:                                          ; preds = %entry
  %6 = load ptr, ptr %s.addr, align 8
  %sec_rs = getelementptr inbounds %struct.CompareState, ptr %6, i32 0, i32 10
  %buf3 = getelementptr inbounds %struct.SocketReadState, ptr %sec_rs, i32 0, i32 5
  %arraydecay4 = getelementptr inbounds [69632 x i8], ptr %buf3, i64 0, i64 0
  %7 = load ptr, ptr %s.addr, align 8
  %sec_rs5 = getelementptr inbounds %struct.CompareState, ptr %7, i32 0, i32 10
  %packet_len6 = getelementptr inbounds %struct.SocketReadState, ptr %sec_rs5, i32 0, i32 3
  %8 = load i32, ptr %packet_len6, align 4
  %9 = load ptr, ptr %s.addr, align 8
  %sec_rs7 = getelementptr inbounds %struct.CompareState, ptr %9, i32 0, i32 10
  %vnet_hdr_len8 = getelementptr inbounds %struct.SocketReadState, ptr %sec_rs7, i32 0, i32 4
  %10 = load i32, ptr %vnet_hdr_len8, align 8
  %call9 = call ptr @packet_new(ptr noundef %arraydecay4, i32 noundef %8, i32 noundef %10)
  store ptr %call9, ptr %pkt, align 8
  br label %if.end

if.end:                                           ; preds = %if.else, %if.then
  %11 = load ptr, ptr %pkt, align 8
  %call10 = call i32 @parse_packet_early(ptr noundef %11)
  %tobool = icmp ne i32 %call10, 0
  br i1 %tobool, label %if.then11, label %if.end12

if.then11:                                        ; preds = %if.end
  %12 = load ptr, ptr %pkt, align 8
  call void @packet_destroy(ptr noundef %12, ptr noundef null)
  store ptr null, ptr %pkt, align 8
  store i32 -1, ptr %retval, align 4
  br label %return

if.end12:                                         ; preds = %if.end
  %13 = load ptr, ptr %pkt, align 8
  call void @fill_connection_key(ptr noundef %13, ptr noundef %key, i1 noundef zeroext false)
  %14 = load ptr, ptr %s.addr, align 8
  %connection_track_table = getelementptr inbounds %struct.CompareState, ptr %14, i32 0, i32 18
  %15 = load ptr, ptr %connection_track_table, align 8
  %16 = load ptr, ptr %s.addr, align 8
  %conn_list = getelementptr inbounds %struct.CompareState, ptr %16, i32 0, i32 17
  %call13 = call ptr @connection_get(ptr noundef %15, ptr noundef %key, ptr noundef %conn_list)
  store ptr %call13, ptr %conn, align 8
  %17 = load ptr, ptr %conn, align 8
  %processing = getelementptr inbounds %struct.Connection, ptr %17, i32 0, i32 2
  %18 = load i8, ptr %processing, align 8
  %tobool14 = trunc i8 %18 to i1
  br i1 %tobool14, label %if.end18, label %if.then15

if.then15:                                        ; preds = %if.end12
  %19 = load ptr, ptr %s.addr, align 8
  %conn_list16 = getelementptr inbounds %struct.CompareState, ptr %19, i32 0, i32 17
  %20 = load ptr, ptr %conn, align 8
  call void @g_queue_push_tail(ptr noundef %conn_list16, ptr noundef %20)
  %21 = load ptr, ptr %conn, align 8
  %processing17 = getelementptr inbounds %struct.Connection, ptr %21, i32 0, i32 2
  store i8 1, ptr %processing17, align 8
  br label %if.end18

if.end18:                                         ; preds = %if.then15, %if.end12
  %22 = load i32, ptr %mode.addr, align 4
  %cmp19 = icmp eq i32 %22, 0
  br i1 %cmp19, label %if.then20, label %if.else22

if.then20:                                        ; preds = %if.end18
  %23 = load ptr, ptr %conn, align 8
  %primary_list = getelementptr inbounds %struct.Connection, ptr %23, i32 0, i32 0
  %24 = load ptr, ptr %pkt, align 8
  %25 = load ptr, ptr %conn, align 8
  %pack = getelementptr inbounds %struct.Connection, ptr %25, i32 0, i32 5
  %call21 = call i32 @colo_insert_packet(ptr noundef %primary_list, ptr noundef %24, ptr noundef %pack)
  store i32 %call21, ptr %ret, align 4
  br label %if.end24

if.else22:                                        ; preds = %if.end18
  %26 = load ptr, ptr %conn, align 8
  %secondary_list = getelementptr inbounds %struct.Connection, ptr %26, i32 0, i32 1
  %27 = load ptr, ptr %pkt, align 8
  %28 = load ptr, ptr %conn, align 8
  %sack = getelementptr inbounds %struct.Connection, ptr %28, i32 0, i32 6
  %call23 = call i32 @colo_insert_packet(ptr noundef %secondary_list, ptr noundef %27, ptr noundef %sack)
  store i32 %call23, ptr %ret, align 4
  br label %if.end24

if.end24:                                         ; preds = %if.else22, %if.then20
  %29 = load i32, ptr %ret, align 4
  %tobool25 = icmp ne i32 %29, 0
  br i1 %tobool25, label %if.end27, label %if.then26

if.then26:                                        ; preds = %if.end24
  %30 = load i32, ptr %mode.addr, align 4
  %idxprom = sext i32 %30 to i64
  %arrayidx = getelementptr [2 x ptr], ptr @colo_mode, i64 0, i64 %idxprom
  %31 = load ptr, ptr %arrayidx, align 8
  call void @trace_colo_compare_drop_packet(ptr noundef %31, ptr noundef @.str.24)
  %32 = load ptr, ptr %pkt, align 8
  call void @packet_destroy(ptr noundef %32, ptr noundef null)
  store ptr null, ptr %pkt, align 8
  br label %if.end27

if.end27:                                         ; preds = %if.then26, %if.end24
  %33 = load ptr, ptr %conn, align 8
  %34 = load ptr, ptr %con.addr, align 8
  store ptr %33, ptr %34, align 8
  store i32 0, ptr %retval, align 4
  br label %return

return:                                           ; preds = %if.end27, %if.then11
  %35 = load i32, ptr %retval, align 4
  ret i32 %35
}