; Function Attrs: nounwind sspstrong uwtable
define internal fastcc range(i32 -1, 1) i32 @packet_enqueue(ptr noundef %s, i32 noundef range(i32 0, 2) %mode, ptr noundef nonnull writeonly captures(none) %con) unnamed_addr #0 {
entry:
  %_now.i.i = alloca %struct.timeval, align 8
  %key = alloca %struct.ConnectionKey, align 1
  %cmp = icmp eq i32 %mode, 0
  %. = select i1 %cmp, i64 316, i64 69980
  %.27 = select i1 %cmp, i64 308, i64 69972
  %.28 = select i1 %cmp, i64 312, i64 69976
  %buf3 = getelementptr inbounds nuw i8, ptr %s, i64 %.
  %packet_len6 = getelementptr inbounds nuw i8, ptr %s, i64 %.27
  %0 = load i32, ptr %packet_len6, align 4
  %vnet_hdr_len8 = getelementptr inbounds nuw i8, ptr %s, i64 %.28
  %1 = load i32, ptr %vnet_hdr_len8, align 8
  %call9 = tail call ptr @packet_new(ptr noundef nonnull %buf3, i32 noundef %0, i32 noundef %1) #16
  %call10 = tail call i32 @parse_packet_early(ptr noundef %call9) #16
  %tobool.not = icmp eq i32 %call10, 0
  br i1 %tobool.not, label %if.end12, label %if.then11

if.then11:                                        ; preds = %entry
  tail call void @packet_destroy(ptr noundef %call9, ptr noundef null) #16
  br label %return

if.end12:                                         ; preds = %entry
  call void @fill_connection_key(ptr noundef %call9, ptr noundef nonnull %key, i1 noundef zeroext false) #16
  %connection_track_table = getelementptr inbounds nuw i8, ptr %s, i64 209448
  %2 = load ptr, ptr %connection_track_table, align 8
  %conn_list = getelementptr inbounds nuw i8, ptr %s, i64 209424
  %call13 = call ptr @connection_get(ptr noundef %2, ptr noundef nonnull %key, ptr noundef nonnull %conn_list) #16
  %processing = getelementptr inbounds nuw i8, ptr %call13, i64 48
  %3 = load i8, ptr %processing, align 8
  %tobool14 = trunc i8 %3 to i1
  br i1 %tobool14, label %if.end18, label %if.then15

if.then15:                                        ; preds = %if.end12
  call void @g_queue_push_tail(ptr noundef nonnull %conn_list, ptr noundef nonnull %call13) #16
  store i8 1, ptr %processing, align 8
  br label %if.end18

if.end18:                                         ; preds = %if.then15, %if.end12
  %.sink26 = select i1 %cmp, i64 56, i64 60
  %secondary_list.sink.idx = select i1 %cmp, i64 0, i64 24
  %secondary_list.sink = getelementptr inbounds nuw i8, ptr %call13, i64 %secondary_list.sink.idx
  %sack = getelementptr inbounds nuw i8, ptr %call13, i64 %.sink26
  %call23 = call fastcc i32 @colo_insert_packet(ptr noundef nonnull %secondary_list.sink, ptr noundef %call9, ptr noundef nonnull %sack)
  %tobool25.not = icmp eq i32 %call23, 0
  br i1 %tobool25.not, label %if.then26, label %if.end27

if.then26:                                        ; preds = %if.end18
  %idxprom = zext nneg i32 %mode to i64
  %arrayidx = getelementptr [2 x ptr], ptr @colo_mode, i64 0, i64 %idxprom
  %4 = load ptr, ptr %arrayidx, align 8
  call void @llvm.lifetime.start.p0(i64 16, ptr nonnull %_now.i.i)
  %5 = load i32, ptr @trace_events_enabled_count, align 4
  %tobool.i.i = icmp ne i32 %5, 0
  %6 = load i16, ptr @_TRACE_COLO_COMPARE_DROP_PACKET_DSTATE, align 2
  %tobool4.i.i = icmp ne i16 %6, 0
  %or.cond.i.i = select i1 %tobool.i.i, i1 %tobool4.i.i, i1 false
  br i1 %or.cond.i.i, label %land.lhs.true5.i.i, label %trace_colo_compare_drop_packet.exit

land.lhs.true5.i.i:                               ; preds = %if.then26
  %7 = load i32, ptr @qemu_loglevel, align 4
  %and.i.i.i = and i32 %7, 32768
  %cmp.i.not.i.i = icmp eq i32 %and.i.i.i, 0
  br i1 %cmp.i.not.i.i, label %trace_colo_compare_drop_packet.exit, label %if.then.i.i

if.then.i.i:                                      ; preds = %land.lhs.true5.i.i
  %8 = load i8, ptr @message_with_timestamp, align 1
  %tobool7.i.i = trunc i8 %8 to i1
  br i1 %tobool7.i.i, label %if.then8.i.i, label %if.else.i.i

if.then8.i.i:                                     ; preds = %if.then.i.i
  %call9.i.i = call i32 @gettimeofday(ptr noundef nonnull %_now.i.i, ptr noundef null) #16
  %call10.i.i = call i32 @qemu_get_thread_id() #16
  %9 = load i64, ptr %_now.i.i, align 8
  %tv_usec.i.i = getelementptr inbounds nuw i8, ptr %_now.i.i, i64 8
  %10 = load i64, ptr %tv_usec.i.i, align 8
  call void (ptr, ...) @qemu_log(ptr noundef nonnull @.str.25, i32 noundef %call10.i.i, i64 noundef %9, i64 noundef %10, ptr noundef %4, ptr noundef nonnull @.str.24) #16
  br label %trace_colo_compare_drop_packet.exit

if.else.i.i:                                      ; preds = %if.then.i.i
  call void (ptr, ...) @qemu_log(ptr noundef nonnull @.str.26, ptr noundef %4, ptr noundef nonnull @.str.24) #16
  br label %trace_colo_compare_drop_packet.exit

trace_colo_compare_drop_packet.exit:              ; preds = %if.then26, %land.lhs.true5.i.i, %if.then8.i.i, %if.else.i.i
  call void @llvm.lifetime.end.p0(i64 16, ptr nonnull %_now.i.i)
  call void @packet_destroy(ptr noundef %call9, ptr noundef null) #16
  br label %if.end27

if.end27:                                         ; preds = %trace_colo_compare_drop_packet.exit, %if.end18
  store ptr %call13, ptr %con, align 8
  br label %return

return:                                           ; preds = %if.end27, %if.then11
  %retval.0 = phi i32 [ -1, %if.then11 ], [ 0, %if.end27 ]
  ret i32 %retval.0
}